target datalayout = "e-m:e-p270:32:32-p271:32:32-p272:64:64-i64:64-i128:128-f80:128-n8:16:32:64-S128"
target triple = "x86_64-unknown-linux-gnu"

%"class.std::optional.153" = type { %"struct.std::_Optional_base.154" }
%"struct.std::_Optional_base.154" = type { %"struct.std::_Optional_payload.156" }
%"struct.std::_Optional_payload.156" = type { %"struct.std::_Optional_payload_base.base.158", [3 x i8] }
%"struct.std::_Optional_payload_base.base.158" = type <{ %"union.std::_Optional_payload_base<unsigned int>::_Storage", i8 }>
%"union.std::_Optional_payload_base<unsigned int>::_Storage" = type { i32 }
%"struct.std::_Optional_payload_base.157" = type <{ %"union.std::_Optional_payload_base<unsigned int>::_Storage", i8, [3 x i8] }>

@_ZTVSt9exception = external unnamed_addr constant { [5 x ptr] }, align 8
@_ZTISt19bad_optional_access = linkonce_odr constant { ptr, ptr, ptr } { ptr getelementptr inbounds (ptr, ptr @_ZTVN10__cxxabiv120__si_class_type_infoE, i64 2), ptr @_ZTSSt19bad_optional_access, ptr @_ZTISt9exception }, comdat, align 8
@_ZTVSt19bad_optional_access = linkonce_odr unnamed_addr constant { [5 x ptr] } { [5 x ptr] [ptr null, ptr @_ZTISt19bad_optional_access, ptr @_ZNSt19bad_optional_accessD2Ev, ptr @_ZNSt19bad_optional_accessD0Ev, ptr @_ZNKSt19bad_optional_access4whatEv] }, comdat, align 8

; Function Attrs: mustprogress nounwind uwtable
define linkonce_odr void @_ZNSt9exceptionC2Ev(ptr noundef nonnull align 8 dereferenceable(8) %this) unnamed_addr #2 comdat align 2 {
entry:
  %this.addr = alloca ptr, align 8
  store ptr %this, ptr %this.addr, align 8
  %this1 = load ptr, ptr %this.addr, align 8
  store ptr getelementptr inbounds ({ [5 x ptr] }, ptr @_ZTVSt9exception, i32 0, i32 0, i32 2), ptr %this1, align 8
  ret void
}

; Function Attrs: mustprogress nounwind uwtable
define linkonce_odr void @_ZNSt19bad_optional_accessC2Ev(ptr noundef nonnull align 8 dereferenceable(8) %this) unnamed_addr #2 comdat align 2 {
entry:
  %this.addr = alloca ptr, align 8
  store ptr %this, ptr %this.addr, align 8
  %this1 = load ptr, ptr %this.addr, align 8
  call void @_ZNSt9exceptionC2Ev(ptr noundef nonnull align 8 dereferenceable(8) %this1) #1
  store ptr getelementptr inbounds ({ [5 x ptr] }, ptr @_ZTVSt19bad_optional_access, i32 0, i32 0, i32 2), ptr %this1, align 8
  ret void
}

; Function Attrs: mustprogress nounwind uwtable
define linkonce_odr noundef nonnull align 4 dereferenceable(4) ptr @_ZNSt22_Optional_payload_baseIjE6_M_getEv(ptr noundef nonnull align 4 dereferenceable(5) %this) #2 comdat align 2 {
entry:
  %this.addr = alloca ptr, align 8
  store ptr %this, ptr %this.addr, align 8
  %this1 = load ptr, ptr %this.addr, align 8
  %_M_payload = getelementptr inbounds %"struct.std::_Optional_payload_base.157", ptr %this1, i32 0, i32 0
  ret ptr %_M_payload
}

; Function Attrs: mustprogress noreturn uwtable
define linkonce_odr void @_ZSt27__throw_bad_optional_accessv() #26 comdat {
entry:
  %exception = call ptr @__cxa_allocate_exception(i64 8) #1
  call void @llvm.memset.p0.i64(ptr align 16 %exception, i8 0, i64 8, i1 false)
  call void @_ZNSt19bad_optional_accessC2Ev(ptr noundef nonnull align 8 dereferenceable(8) %exception) #1
  call void @__cxa_throw(ptr %exception, ptr @_ZTISt19bad_optional_access, ptr @_ZNSt19bad_optional_accessD2Ev) #30
  unreachable
}

; Function Attrs: mustprogress nounwind uwtable
define linkonce_odr noundef nonnull align 4 dereferenceable(4) ptr @_ZNSt19_Optional_base_implIjSt14_Optional_baseIjLb1ELb1EEE6_M_getEv(ptr noundef nonnull align 1 dereferenceable(1) %this) #2 comdat align 2 {
entry:
  %this.addr = alloca ptr, align 8
  store ptr %this, ptr %this.addr, align 8
  %this1 = load ptr, ptr %this.addr, align 8
  br label %do.body

do.body:                                          ; preds = %entry
  br label %do.cond

do.cond:                                          ; preds = %do.body
  br label %do.end

do.end:                                           ; preds = %do.cond
  %_M_payload = getelementptr inbounds %"struct.std::_Optional_base.154", ptr %this1, i32 0, i32 0
  %call = call noundef nonnull align 4 dereferenceable(4) ptr @_ZNSt22_Optional_payload_baseIjE6_M_getEv(ptr noundef nonnull align 4 dereferenceable(5) %_M_payload) #1
  ret ptr %call
}

; Function Attrs: mustprogress nounwind uwtable
define linkonce_odr noundef zeroext i1 @_ZNKSt19_Optional_base_implIjSt14_Optional_baseIjLb1ELb1EEE13_M_is_engagedEv(ptr noundef nonnull align 1 dereferenceable(1) %this) #2 comdat align 2 {
entry:
  %this.addr = alloca ptr, align 8
  store ptr %this, ptr %this.addr, align 8
  %this1 = load ptr, ptr %this.addr, align 8
  %_M_payload = getelementptr inbounds %"struct.std::_Optional_base.154", ptr %this1, i32 0, i32 0
  %_M_engaged = getelementptr inbounds %"struct.std::_Optional_payload_base.157", ptr %_M_payload, i32 0, i32 1
  %0 = load i8, ptr %_M_engaged, align 4
  %tobool = trunc i8 %0 to i1
  ret i1 %tobool
}

; Function Attrs: mustprogress uwtable
define linkonce_odr noundef nonnull align 4 dereferenceable(4) ptr @_ZNRSt8optionalIjE5valueEv(ptr noundef nonnull align 4 dereferenceable(8) %this) #0 comdat align 2 {
entry:
  %this.addr = alloca ptr, align 8
  store ptr %this, ptr %this.addr, align 8
  %this1 = load ptr, ptr %this.addr, align 8
  %call = call noundef zeroext i1 @_ZNKSt19_Optional_base_implIjSt14_Optional_baseIjLb1ELb1EEE13_M_is_engagedEv(ptr noundef nonnull align 1 dereferenceable(1) %this1) #1
  br i1 %call, label %if.then, label %if.end

if.then:                                          ; preds = %entry
  %call2 = call noundef nonnull align 4 dereferenceable(4) ptr @_ZNSt19_Optional_base_implIjSt14_Optional_baseIjLb1ELb1EEE6_M_getEv(ptr noundef nonnull align 1 dereferenceable(1) %this1) #1
  ret ptr %call2

if.end:                                           ; preds = %entry
  call void @_ZSt27__throw_bad_optional_accessv() #30
  unreachable
}

; Function Attrs: mustprogress nounwind uwtable
define linkonce_odr noundef zeroext i1 @_ZNKSt8optionalIjE9has_valueEv(ptr noundef nonnull align 4 dereferenceable(8) %this) #2 comdat align 2 {
entry:
  %this.addr = alloca ptr, align 8
  store ptr %this, ptr %this.addr, align 8
  %this1 = load ptr, ptr %this.addr, align 8
  %call = call noundef zeroext i1 @_ZNKSt19_Optional_base_implIjSt14_Optional_baseIjLb1ELb1EEE13_M_is_engagedEv(ptr noundef nonnull align 1 dereferenceable(1) %this1) #1
  ret i1 %call
}

; Function Attrs: mustprogress uwtable
define noundef i32 @_ZNK8facebook5velox7RowType11getChildIdxERKNSt7__cxx1112basic_stringIcSt11char_traitsIcESaIcEEE(ptr noundef nonnull align 8 dereferenceable(120) %this, ptr noundef nonnull align 8 dereferenceable(32) %name) #0 align 2 {
entry:
  %this.addr = alloca ptr, align 8
  %name.addr = alloca ptr, align 8
  %index = alloca %"class.std::optional.153", align 4
  store ptr %this, ptr %this.addr, align 8
  store ptr %name, ptr %name.addr, align 8
  %this1 = load ptr, ptr %this.addr, align 8
  %0 = load ptr, ptr %name.addr, align 8
  %call = call i64 @_ZNK8facebook5velox7RowType19getChildIdxIfExistsERKNSt7__cxx1112basic_stringIcSt11char_traitsIcESaIcEEE(ptr noundef nonnull align 8 dereferenceable(120) %this1, ptr noundef nonnull align 8 dereferenceable(32) %0)
  %coerce.dive = getelementptr inbounds %"class.std::optional.153", ptr %index, i32 0, i32 0
  %coerce.dive2 = getelementptr inbounds %"struct.std::_Optional_base.154", ptr %coerce.dive, i32 0, i32 0
  store i64 %call, ptr %coerce.dive2, align 4
  %call3 = call noundef zeroext i1 @_ZNKSt8optionalIjE9has_valueEv(ptr noundef nonnull align 4 dereferenceable(8) %index) #1
  br i1 %call3, label %if.end, label %if.then

if.then:                                          ; preds = %entry
  call void @llvm.trap()
  br label %if.end

if.end:                                           ; preds = %if.then, %entry
  %call4 = call noundef nonnull align 4 dereferenceable(4) ptr @_ZNRSt8optionalIjE5valueEv(ptr noundef nonnull align 4 dereferenceable(8) %index)
  %1 = load i32, ptr %call4, align 4
  ret i32 %1
}