; Function Attrs: mustprogress nounwind uwtable
define noundef i32 @_ZNK8facebook5velox7RowType11getChildIdxERKNSt7__cxx1112basic_stringIcSt11char_traitsIcESaIcEEE(ptr nocapture noundef nonnull readonly align 8 dereferenceable(120) %this, ptr noundef nonnull align 8 dereferenceable(32) %name) local_unnamed_addr #2 align 2 {
entry:
  %call = tail call i64 @_ZNK8facebook5velox7RowType19getChildIdxIfExistsERKNSt7__cxx1112basic_stringIcSt11char_traitsIcESaIcEEE(ptr noundef nonnull align 8 dereferenceable(120) %this, ptr noundef nonnull align 8 dereferenceable(32) %name)
  %0 = and i64 %call, 4294967296
  %tobool.i.i.not = icmp eq i64 %0, 0
  br i1 %tobool.i.i.not, label %if.then, label %_ZNRSt8optionalIjE5valueEv.exit

if.then:                                          ; preds = %entry
  tail call void @llvm.trap()
  unreachable

_ZNRSt8optionalIjE5valueEv.exit:                  ; preds = %entry
  %index.sroa.0.0.extract.trunc = trunc i64 %call to i32
  ret i32 %index.sroa.0.0.extract.trunc
}